target datalayout = "e-m:e-p270:32:32-p271:32:32-p272:64:64-i64:64-i128:128-f80:128-n8:16:32:64-S128"
target triple = "x86_64-pc-linux-gnu"

%struct.job_record = type { i32, ptr, ptr, ptr, ptr, i16, i32, i32, i32, ptr, i32, ptr, ptr, i16, ptr, double, i64, ptr, ptr, ptr, ptr, ptr, ptr, i32, ptr, i32, i64, i64, i32, i32, ptr, i16, i64, i64, i8, i32, ptr, ptr, ptr, ptr, ptr, ptr, ptr, ptr, i32, ptr, ptr, i32, ptr, i32, ptr, i32, ptr, i32, ptr, ptr, ptr, ptr, ptr, ptr, i32, i16, i64, ptr, ptr, ptr, ptr, %struct.acct_policy_limit_set_t, i16, ptr, ptr, ptr, ptr, ptr, i32, ptr, ptr, ptr, ptr, ptr, i32, i32, ptr, ptr, ptr, i16, ptr, ptr, i8, ptr, ptr, i64, i64, i8, i32, i32, i8, i32, ptr, i32, i64, i32, ptr, ptr, ptr, i8, i16, i64, i32, ptr, ptr, ptr, ptr, ptr, i16, i32, ptr, ptr, ptr, ptr, i32, ptr, i32, i16, i64, ptr, i32, i32, ptr, i64, ptr, ptr, i64, i32, i32, i64, i32, i32, ptr, ptr, ptr, ptr, ptr, ptr, ptr, ptr, ptr, ptr, ptr, ptr, i32, ptr, i16, i16, i16, i16, ptr, i32, i32, i8, i64 }
%struct.acct_policy_limit_set_t = type { i16, i16, ptr }
%struct.suspend_msg = type { i16, i32, ptr }

@acct_db_conn = external global ptr, align 8
@hash_table_size = internal global i32 0, align 4
@job_hash = internal global ptr null, align 8
@.str.53 = private unnamed_addr constant [3 x i8] c"%u\00", align 1
@.str.217 = private unnamed_addr constant [56 x i8] c"SECURITY VIOLATION: Attempt to suspend job from user %u\00", align 1

; Function Attrs: nounwind uwtable
define dso_local ptr @find_job_record(i32 noundef %0) #0 {
  %2 = alloca ptr, align 8
  %3 = alloca i32, align 4
  %4 = alloca ptr, align 8
  %5 = alloca i32, align 4
  store i32 %0, ptr %3, align 4
  call void @llvm.lifetime.start.p0(i64 8, ptr %4) #13
  %6 = load ptr, ptr @job_hash, align 8
  %7 = load i32, ptr %3, align 4
  %8 = load i32, ptr @hash_table_size, align 4
  %9 = urem i32 %7, %8
  %10 = zext i32 %9 to i64
  %11 = getelementptr inbounds nuw ptr, ptr %6, i64 %10
  %12 = load ptr, ptr %11, align 8
  store ptr %12, ptr %4, align 8
  br label %13

13:                                               ; preds = %24, %1
  %14 = load ptr, ptr %4, align 8
  %15 = icmp ne ptr %14, null
  br i1 %15, label %16, label %28

16:                                               ; preds = %13
  %17 = load ptr, ptr %4, align 8
  %18 = getelementptr inbounds nuw %struct.job_record, ptr %17, i32 0, i32 53
  %19 = load i32, ptr %18, align 8
  %20 = load i32, ptr %3, align 4
  %21 = icmp eq i32 %19, %20
  br i1 %21, label %22, label %24

22:                                               ; preds = %16
  %23 = load ptr, ptr %4, align 8
  store ptr %23, ptr %2, align 8
  store i32 1, ptr %5, align 4
  br label %29

24:                                               ; preds = %16
  %25 = load ptr, ptr %4, align 8
  %26 = getelementptr inbounds nuw %struct.job_record, ptr %25, i32 0, i32 55
  %27 = load ptr, ptr %26, align 8
  store ptr %27, ptr %4, align 8
  br label %13, !llvm.loop !14

28:                                               ; preds = %13
  store ptr null, ptr %2, align 8
  store i32 1, ptr %5, align 4
  br label %29

29:                                               ; preds = %28, %22
  call void @llvm.lifetime.end.p0(i64 8, ptr %4) #13
  %30 = load ptr, ptr %2, align 8
  ret ptr %30
}

; Function Attrs: nounwind uwtable
define dso_local i32 @job_suspend(ptr noundef %0, ptr noundef %1, i32 noundef %2, i1 noundef zeroext %3, i16 noundef zeroext %4) #0 {
  %6 = alloca ptr, align 8
  %7 = alloca ptr, align 8
  %8 = alloca i32, align 4
  %9 = alloca i8, align 1
  %10 = alloca i16, align 2
  %11 = alloca i32, align 4
  %12 = alloca ptr, align 8
  store ptr %0, ptr %6, align 8
  store ptr %1, ptr %7, align 8
  store i32 %2, ptr %8, align 4
  %13 = zext i1 %3 to i8
  store i8 %13, ptr %9, align 1
  store i16 %4, ptr %10, align 2
  call void @llvm.lifetime.start.p0(i64 4, ptr %11) #13
  store i32 0, ptr %11, align 4
  call void @llvm.lifetime.start.p0(i64 8, ptr %12) #13
  store ptr null, ptr %12, align 8
  %14 = load ptr, ptr %7, align 8
  %15 = getelementptr inbounds nuw %struct.suspend_msg, ptr %14, i32 0, i32 2
  call void @slurm_xfree(ptr noundef %15)
  %16 = load ptr, ptr %7, align 8
  %17 = getelementptr inbounds nuw %struct.suspend_msg, ptr %16, i32 0, i32 2
  %18 = load ptr, ptr %7, align 8
  %19 = getelementptr inbounds nuw %struct.suspend_msg, ptr %18, i32 0, i32 1
  %20 = load i32, ptr %19, align 4
  call void (ptr, ptr, ...) @_xstrfmtcat(ptr noundef %17, ptr noundef @.str.53, i32 noundef %20)
  %21 = load ptr, ptr %7, align 8
  %22 = getelementptr inbounds nuw %struct.suspend_msg, ptr %21, i32 0, i32 1
  %23 = load i32, ptr %22, align 4
  %24 = call ptr @find_job_record(i32 noundef %23)
  store ptr %24, ptr %12, align 8
  %25 = load ptr, ptr %12, align 8
  %26 = icmp eq ptr %25, null
  br i1 %26, label %27, label %28

27:                                               ; preds = %5
  store i32 2017, ptr %11, align 4
  br label %49

28:                                               ; preds = %5
  %29 = load i32, ptr %8, align 4
  %30 = call zeroext i1 @validate_operator(i32 noundef %29)
  br i1 %30, label %41, label %31

31:                                               ; preds = %28
  %32 = load ptr, ptr @acct_db_conn, align 8
  %33 = load i32, ptr %8, align 4
  %34 = load ptr, ptr %12, align 8
  %35 = getelementptr inbounds nuw %struct.job_record, ptr %34, i32 0, i32 1
  %36 = load ptr, ptr %35, align 8
  %37 = call zeroext i1 @assoc_mgr_is_user_acct_coord(ptr noundef %32, i32 noundef %33, ptr noundef %36, i1 noundef zeroext false)
  br i1 %37, label %41, label %38

38:                                               ; preds = %31
  %39 = load i32, ptr %8, align 4
  %40 = call i32 (ptr, ...) @error(ptr noundef @.str.217, i32 noundef %39)
  store i32 2002, ptr %11, align 4
  br label %49

41:                                               ; preds = %31, %28
  %42 = load ptr, ptr %12, align 8
  %43 = load ptr, ptr %7, align 8
  %44 = getelementptr inbounds nuw %struct.suspend_msg, ptr %43, i32 0, i32 0
  %45 = load i16, ptr %44, align 8
  %46 = load i8, ptr %9, align 1, !range !8, !noundef !9
  %47 = trunc i8 %46 to i1
  %48 = call i32 @_job_suspend(ptr noundef %42, i16 noundef zeroext %45, i1 noundef zeroext %47)
  store i32 %48, ptr %11, align 4
  br label %49

49:                                               ; preds = %41, %38, %27
  %50 = load ptr, ptr %7, align 8
  %51 = getelementptr inbounds nuw %struct.suspend_msg, ptr %50, i32 0, i32 2
  call void @slurm_xfree(ptr noundef %51)
  %52 = load ptr, ptr %6, align 8
  %53 = icmp ne ptr %52, null
  br i1 %53, label %54, label %58

54:                                               ; preds = %49
  %55 = load ptr, ptr %6, align 8
  %56 = load i32, ptr %11, align 4
  %57 = call i32 @slurm_send_rc_msg(ptr noundef %55, i32 noundef %56)
  br label %58

58:                                               ; preds = %54, %49
  %59 = load i32, ptr %11, align 4
  call void @llvm.lifetime.end.p0(i64 8, ptr %12) #13
  call void @llvm.lifetime.end.p0(i64 4, ptr %11) #13
  ret i32 %59
}