; Function Attrs: nounwind uwtable
define dso_local i32 @job_suspend(ptr noundef %0, ptr noundef %1, i32 noundef %2, i1 noundef zeroext %3, i16 noundef zeroext %4) local_unnamed_addr #0 {
  %6 = getelementptr inbounds nuw i8, ptr %1, i64 8
  tail call void @slurm_xfree(ptr noundef nonnull %6) #27
  %7 = getelementptr inbounds nuw i8, ptr %1, i64 4
  %8 = load i32, ptr %7, align 4
  tail call void (ptr, ptr, ...) @_xstrfmtcat(ptr noundef nonnull %6, ptr noundef nonnull @.str.53, i32 noundef %8) #27
  %9 = load i32, ptr %7, align 4
  %10 = load ptr, ptr @job_hash, align 8
  %11 = load i32, ptr @hash_table_size, align 4
  %12 = urem i32 %9, %11
  %13 = zext i32 %12 to i64
  %14 = getelementptr inbounds nuw ptr, ptr %10, i64 %13
  %.07.i = load ptr, ptr %14, align 8
  %.not8.i = icmp eq ptr %.07.i, null
  br i1 %.not8.i, label %find_job_record.exit.thread, label %.lr.ph.i

.lr.ph.i:                                         ; preds = %5, %18
  %.09.i = phi ptr [ %.0.i, %18 ], [ %.07.i, %5 ]
  %15 = getelementptr inbounds nuw i8, ptr %.09.i, i64 392
  %16 = load i32, ptr %15, align 8
  %17 = icmp eq i32 %16, %9
  br i1 %17, label %find_job_record.exit, label %18

18:                                               ; preds = %.lr.ph.i
  %19 = getelementptr inbounds nuw i8, ptr %.09.i, i64 408
  %.0.i = load ptr, ptr %19, align 8
  %.not.i = icmp eq ptr %.0.i, null
  br i1 %.not.i, label %find_job_record.exit.thread, label %.lr.ph.i, !llvm.loop !14

find_job_record.exit:                             ; preds = %.lr.ph.i
  %20 = tail call zeroext i1 @validate_operator(i32 noundef %2) #27
  br i1 %20, label %28, label %21

21:                                               ; preds = %find_job_record.exit
  %22 = load ptr, ptr @acct_db_conn, align 8
  %23 = getelementptr inbounds nuw i8, ptr %.09.i, i64 8
  %24 = load ptr, ptr %23, align 8
  %25 = tail call zeroext i1 @assoc_mgr_is_user_acct_coord(ptr noundef %22, i32 noundef %2, ptr noundef %24, i1 noundef zeroext false) #27
  br i1 %25, label %28, label %26

26:                                               ; preds = %21
  %27 = tail call i32 (ptr, ...) @error(ptr noundef nonnull @.str.217, i32 noundef %2) #27
  br label %find_job_record.exit.thread

28:                                               ; preds = %21, %find_job_record.exit
  %29 = load i16, ptr %1, align 8
  %30 = tail call fastcc i32 @_job_suspend(ptr noundef %.09.i, i16 noundef zeroext %29, i1 noundef zeroext %3)
  br label %find_job_record.exit.thread

find_job_record.exit.thread:                      ; preds = %18, %5, %28, %26
  %.0 = phi i32 [ %30, %28 ], [ 2002, %26 ], [ 2017, %5 ], [ 2017, %18 ]
  tail call void @slurm_xfree(ptr noundef nonnull %6) #27
  %.not = icmp eq ptr %0, null
  br i1 %.not, label %33, label %31

31:                                               ; preds = %find_job_record.exit.thread
  %32 = tail call i32 @slurm_send_rc_msg(ptr noundef nonnull %0, i32 noundef %.0) #27
  br label %33

33:                                               ; preds = %31, %find_job_record.exit.thread
  ret i32 %.0
}